; Function Attrs: mustprogress uwtable
define void @_ZN7rocksdb17CompactionOutputs10NewBuilderERKNS_19TableBuilderOptionsE(ptr noundef nonnull align 8 captures(none) dereferenceable(328) %0, ptr noundef nonnull align 8 dereferenceable(216) %1) local_unnamed_addr #4 align 2 personality ptr @__gxx_personality_v0 {
  %3 = getelementptr inbounds nuw i8, ptr %0, i64 8
  %4 = getelementptr inbounds nuw i8, ptr %0, i64 16
  %5 = load ptr, ptr %4, align 8, !tbaa !18
  %6 = tail call noundef ptr @_ZN7rocksdb15NewTableBuilderERKNS_19TableBuilderOptionsEPNS_18WritableFileWriterE(ptr noundef nonnull align 8 dereferenceable(216) %1, ptr noundef %5)
  %7 = load ptr, ptr %3, align 8, !tbaa !20
  store ptr %6, ptr %3, align 8, !tbaa !20
  %.not.i.i = icmp eq ptr %7, null
  br i1 %.not.i.i, label %_ZNSt10unique_ptrIN7rocksdb12TableBuilderESt14default_deleteIS1_EE5resetEPS1_.exit, label %_ZNKSt14default_deleteIN7rocksdb12TableBuilderEEclEPS1_.exit.i.i

_ZNKSt14default_deleteIN7rocksdb12TableBuilderEEclEPS1_.exit.i.i: ; preds = %2
  %8 = load ptr, ptr %7, align 8, !tbaa !22
  %9 = getelementptr inbounds nuw i8, ptr %8, i64 8
  %10 = load ptr, ptr %9, align 8
  tail call void %10(ptr noundef nonnull align 8 dereferenceable(8) %7) #24
  br label %_ZNSt10unique_ptrIN7rocksdb12TableBuilderESt14default_deleteIS1_EE5resetEPS1_.exit

_ZNSt10unique_ptrIN7rocksdb12TableBuilderESt14default_deleteIS1_EE5resetEPS1_.exit: ; preds = %2, %_ZNKSt14default_deleteIN7rocksdb12TableBuilderEEclEPS1_.exit.i.i
  ret void
}